target datalayout = "e-m:e-p270:32:32-p271:32:32-p272:64:64-i64:64-i128:128-f80:128-n8:16:32:64-S128"
target triple = "x86_64-pc-linux-gnu"

%struct.jv = type { i8, i8, i16, i32, %union.anon }
%union.anon = type { ptr }

@.str.154 = private unnamed_addr constant [16 x i8] c"number required\00", align 1
@.str.155 = private unnamed_addr constant [11 x i8] c"%s (%s) %s\00", align 1

; Function Attrs: nounwind uwtable
define internal { i64, ptr } @type_error(i64 %0, ptr %1, ptr noundef %2) #0 {
  %4 = alloca %struct.jv, align 8
  %5 = alloca %struct.jv, align 8
  %6 = alloca ptr, align 8
  %7 = alloca [15 x i8], align 1
  %8 = alloca ptr, align 8
  %9 = alloca %struct.jv, align 8
  %10 = getelementptr inbounds nuw { i64, ptr }, ptr %5, i32 0, i32 0
  store i64 %0, ptr %10, align 8
  %11 = getelementptr inbounds nuw { i64, ptr }, ptr %5, i32 0, i32 1
  store ptr %1, ptr %11, align 8
  store ptr %2, ptr %6, align 8, !tbaa !12
  call void @llvm.lifetime.start.p0(i64 15, ptr %7) #10
  call void @llvm.lifetime.start.p0(i64 8, ptr %8) #10
  %12 = getelementptr inbounds nuw { i64, ptr }, ptr %5, i32 0, i32 0
  %13 = load i64, ptr %12, align 8
  %14 = getelementptr inbounds nuw { i64, ptr }, ptr %5, i32 0, i32 1
  %15 = load ptr, ptr %14, align 8
  %16 = call i32 @jv_get_kind(i64 %13, ptr %15)
  %17 = call ptr @jv_kind_name(i32 noundef %16)
  store ptr %17, ptr %8, align 8, !tbaa !12
  %18 = load ptr, ptr %8, align 8, !tbaa !12
  %19 = getelementptr inbounds [15 x i8], ptr %7, i64 0, i64 0
  %20 = getelementptr inbounds nuw { i64, ptr }, ptr %5, i32 0, i32 0
  %21 = load i64, ptr %20, align 8
  %22 = getelementptr inbounds nuw { i64, ptr }, ptr %5, i32 0, i32 1
  %23 = load ptr, ptr %22, align 8
  %24 = call ptr @jv_dump_string_trunc(i64 %21, ptr %23, ptr noundef %19, i64 noundef 15)
  %25 = load ptr, ptr %6, align 8, !tbaa !12
  %26 = call { i64, ptr } (ptr, ...) @jv_string_fmt(ptr noundef @.str.155, ptr noundef %18, ptr noundef %24, ptr noundef %25)
  %27 = getelementptr inbounds nuw { i64, ptr }, ptr %9, i32 0, i32 0
  %28 = extractvalue { i64, ptr } %26, 0
  store i64 %28, ptr %27, align 8
  %29 = getelementptr inbounds nuw { i64, ptr }, ptr %9, i32 0, i32 1
  %30 = extractvalue { i64, ptr } %26, 1
  store ptr %30, ptr %29, align 8
  %31 = getelementptr inbounds nuw { i64, ptr }, ptr %9, i32 0, i32 0
  %32 = load i64, ptr %31, align 8
  %33 = getelementptr inbounds nuw { i64, ptr }, ptr %9, i32 0, i32 1
  %34 = load ptr, ptr %33, align 8
  %35 = call { i64, ptr } @jv_invalid_with_msg(i64 %32, ptr %34)
  %36 = getelementptr inbounds nuw { i64, ptr }, ptr %4, i32 0, i32 0
  %37 = extractvalue { i64, ptr } %35, 0
  store i64 %37, ptr %36, align 8
  %38 = getelementptr inbounds nuw { i64, ptr }, ptr %4, i32 0, i32 1
  %39 = extractvalue { i64, ptr } %35, 1
  store ptr %39, ptr %38, align 8
  call void @llvm.lifetime.end.p0(i64 8, ptr %8) #10
  call void @llvm.lifetime.end.p0(i64 15, ptr %7) #10
  %40 = load { i64, ptr }, ptr %4, align 8
  ret { i64, ptr } %40
}

; Function Attrs: nounwind uwtable
define internal { i64, ptr } @f_fma(ptr noundef %0, i64 %1, ptr %2, i64 %3, ptr %4, ptr noundef byval(%struct.jv) align 8 %5, ptr noundef byval(%struct.jv) align 8 %6) #0 {
  %8 = alloca %struct.jv, align 8
  %9 = alloca %struct.jv, align 8
  %10 = alloca %struct.jv, align 8
  %11 = alloca ptr, align 8
  %12 = getelementptr inbounds nuw { i64, ptr }, ptr %9, i32 0, i32 0
  store i64 %1, ptr %12, align 8
  %13 = getelementptr inbounds nuw { i64, ptr }, ptr %9, i32 0, i32 1
  store ptr %2, ptr %13, align 8
  %14 = getelementptr inbounds nuw { i64, ptr }, ptr %10, i32 0, i32 0
  store i64 %3, ptr %14, align 8
  %15 = getelementptr inbounds nuw { i64, ptr }, ptr %10, i32 0, i32 1
  store ptr %4, ptr %15, align 8
  store ptr %0, ptr %11, align 8, !tbaa !25
  %16 = getelementptr inbounds nuw { i64, ptr }, ptr %9, i32 0, i32 0
  %17 = load i64, ptr %16, align 8
  %18 = getelementptr inbounds nuw { i64, ptr }, ptr %9, i32 0, i32 1
  %19 = load ptr, ptr %18, align 8
  call void @jv_free(i64 %17, ptr %19)
  %20 = getelementptr inbounds nuw { i64, ptr }, ptr %10, i32 0, i32 0
  %21 = load i64, ptr %20, align 8
  %22 = getelementptr inbounds nuw { i64, ptr }, ptr %10, i32 0, i32 1
  %23 = load ptr, ptr %22, align 8
  %24 = call i32 @jv_get_kind(i64 %21, ptr %23)
  %25 = icmp ne i32 %24, 4
  br i1 %25, label %26, label %44

26:                                               ; preds = %7
  %27 = getelementptr inbounds nuw { i64, ptr }, ptr %5, i32 0, i32 0
  %28 = load i64, ptr %27, align 8
  %29 = getelementptr inbounds nuw { i64, ptr }, ptr %5, i32 0, i32 1
  %30 = load ptr, ptr %29, align 8
  call void @jv_free(i64 %28, ptr %30)
  %31 = getelementptr inbounds nuw { i64, ptr }, ptr %6, i32 0, i32 0
  %32 = load i64, ptr %31, align 8
  %33 = getelementptr inbounds nuw { i64, ptr }, ptr %6, i32 0, i32 1
  %34 = load ptr, ptr %33, align 8
  call void @jv_free(i64 %32, ptr %34)
  %35 = getelementptr inbounds nuw { i64, ptr }, ptr %10, i32 0, i32 0
  %36 = load i64, ptr %35, align 8
  %37 = getelementptr inbounds nuw { i64, ptr }, ptr %10, i32 0, i32 1
  %38 = load ptr, ptr %37, align 8
  %39 = call { i64, ptr } @type_error(i64 %36, ptr %38, ptr noundef @.str.154)
  %40 = getelementptr inbounds nuw { i64, ptr }, ptr %8, i32 0, i32 0
  %41 = extractvalue { i64, ptr } %39, 0
  store i64 %41, ptr %40, align 8
  %42 = getelementptr inbounds nuw { i64, ptr }, ptr %8, i32 0, i32 1
  %43 = extractvalue { i64, ptr } %39, 1
  store ptr %43, ptr %42, align 8
  br label %128

44:                                               ; preds = %7
  %45 = getelementptr inbounds nuw { i64, ptr }, ptr %5, i32 0, i32 0
  %46 = load i64, ptr %45, align 8
  %47 = getelementptr inbounds nuw { i64, ptr }, ptr %5, i32 0, i32 1
  %48 = load ptr, ptr %47, align 8
  %49 = call i32 @jv_get_kind(i64 %46, ptr %48)
  %50 = icmp ne i32 %49, 4
  br i1 %50, label %51, label %69

51:                                               ; preds = %44
  %52 = getelementptr inbounds nuw { i64, ptr }, ptr %10, i32 0, i32 0
  %53 = load i64, ptr %52, align 8
  %54 = getelementptr inbounds nuw { i64, ptr }, ptr %10, i32 0, i32 1
  %55 = load ptr, ptr %54, align 8
  call void @jv_free(i64 %53, ptr %55)
  %56 = getelementptr inbounds nuw { i64, ptr }, ptr %6, i32 0, i32 0
  %57 = load i64, ptr %56, align 8
  %58 = getelementptr inbounds nuw { i64, ptr }, ptr %6, i32 0, i32 1
  %59 = load ptr, ptr %58, align 8
  call void @jv_free(i64 %57, ptr %59)
  %60 = getelementptr inbounds nuw { i64, ptr }, ptr %5, i32 0, i32 0
  %61 = load i64, ptr %60, align 8
  %62 = getelementptr inbounds nuw { i64, ptr }, ptr %5, i32 0, i32 1
  %63 = load ptr, ptr %62, align 8
  %64 = call { i64, ptr } @type_error(i64 %61, ptr %63, ptr noundef @.str.154)
  %65 = getelementptr inbounds nuw { i64, ptr }, ptr %8, i32 0, i32 0
  %66 = extractvalue { i64, ptr } %64, 0
  store i64 %66, ptr %65, align 8
  %67 = getelementptr inbounds nuw { i64, ptr }, ptr %8, i32 0, i32 1
  %68 = extractvalue { i64, ptr } %64, 1
  store ptr %68, ptr %67, align 8
  br label %128

69:                                               ; preds = %44
  %70 = getelementptr inbounds nuw { i64, ptr }, ptr %6, i32 0, i32 0
  %71 = load i64, ptr %70, align 8
  %72 = getelementptr inbounds nuw { i64, ptr }, ptr %6, i32 0, i32 1
  %73 = load ptr, ptr %72, align 8
  %74 = call i32 @jv_get_kind(i64 %71, ptr %73)
  %75 = icmp ne i32 %74, 4
  br i1 %75, label %76, label %94

76:                                               ; preds = %69
  %77 = getelementptr inbounds nuw { i64, ptr }, ptr %10, i32 0, i32 0
  %78 = load i64, ptr %77, align 8
  %79 = getelementptr inbounds nuw { i64, ptr }, ptr %10, i32 0, i32 1
  %80 = load ptr, ptr %79, align 8
  call void @jv_free(i64 %78, ptr %80)
  %81 = getelementptr inbounds nuw { i64, ptr }, ptr %5, i32 0, i32 0
  %82 = load i64, ptr %81, align 8
  %83 = getelementptr inbounds nuw { i64, ptr }, ptr %5, i32 0, i32 1
  %84 = load ptr, ptr %83, align 8
  call void @jv_free(i64 %82, ptr %84)
  %85 = getelementptr inbounds nuw { i64, ptr }, ptr %6, i32 0, i32 0
  %86 = load i64, ptr %85, align 8
  %87 = getelementptr inbounds nuw { i64, ptr }, ptr %6, i32 0, i32 1
  %88 = load ptr, ptr %87, align 8
  %89 = call { i64, ptr } @type_error(i64 %86, ptr %88, ptr noundef @.str.154)
  %90 = getelementptr inbounds nuw { i64, ptr }, ptr %8, i32 0, i32 0
  %91 = extractvalue { i64, ptr } %89, 0
  store i64 %91, ptr %90, align 8
  %92 = getelementptr inbounds nuw { i64, ptr }, ptr %8, i32 0, i32 1
  %93 = extractvalue { i64, ptr } %89, 1
  store ptr %93, ptr %92, align 8
  br label %128

94:                                               ; preds = %69
  %95 = getelementptr inbounds nuw { i64, ptr }, ptr %10, i32 0, i32 0
  %96 = load i64, ptr %95, align 8
  %97 = getelementptr inbounds nuw { i64, ptr }, ptr %10, i32 0, i32 1
  %98 = load ptr, ptr %97, align 8
  %99 = call double @jv_number_value(i64 %96, ptr %98)
  %100 = getelementptr inbounds nuw { i64, ptr }, ptr %5, i32 0, i32 0
  %101 = load i64, ptr %100, align 8
  %102 = getelementptr inbounds nuw { i64, ptr }, ptr %5, i32 0, i32 1
  %103 = load ptr, ptr %102, align 8
  %104 = call double @jv_number_value(i64 %101, ptr %103)
  %105 = getelementptr inbounds nuw { i64, ptr }, ptr %6, i32 0, i32 0
  %106 = load i64, ptr %105, align 8
  %107 = getelementptr inbounds nuw { i64, ptr }, ptr %6, i32 0, i32 1
  %108 = load ptr, ptr %107, align 8
  %109 = call double @jv_number_value(i64 %106, ptr %108)
  %110 = call double @llvm.fma.f64(double %99, double %104, double %109)
  %111 = call { i64, ptr } @jv_number(double noundef %110)
  %112 = getelementptr inbounds nuw { i64, ptr }, ptr %8, i32 0, i32 0
  %113 = extractvalue { i64, ptr } %111, 0
  store i64 %113, ptr %112, align 8
  %114 = getelementptr inbounds nuw { i64, ptr }, ptr %8, i32 0, i32 1
  %115 = extractvalue { i64, ptr } %111, 1
  store ptr %115, ptr %114, align 8
  %116 = getelementptr inbounds nuw { i64, ptr }, ptr %10, i32 0, i32 0
  %117 = load i64, ptr %116, align 8
  %118 = getelementptr inbounds nuw { i64, ptr }, ptr %10, i32 0, i32 1
  %119 = load ptr, ptr %118, align 8
  call void @jv_free(i64 %117, ptr %119)
  %120 = getelementptr inbounds nuw { i64, ptr }, ptr %5, i32 0, i32 0
  %121 = load i64, ptr %120, align 8
  %122 = getelementptr inbounds nuw { i64, ptr }, ptr %5, i32 0, i32 1
  %123 = load ptr, ptr %122, align 8
  call void @jv_free(i64 %121, ptr %123)
  %124 = getelementptr inbounds nuw { i64, ptr }, ptr %6, i32 0, i32 0
  %125 = load i64, ptr %124, align 8
  %126 = getelementptr inbounds nuw { i64, ptr }, ptr %6, i32 0, i32 1
  %127 = load ptr, ptr %126, align 8
  call void @jv_free(i64 %125, ptr %127)
  br label %128

128:                                              ; preds = %94, %76, %51, %26
  %129 = load { i64, ptr }, ptr %8, align 8
  ret { i64, ptr } %129
}