; Function Attrs: nounwind uwtable
define internal { i64, ptr } @f_fma(ptr readnone captures(none) %0, i64 %1, ptr %2, i64 %3, ptr %4, ptr noundef readonly byval(%struct.jv) align 8 captures(none) %5, ptr noundef readonly byval(%struct.jv) align 8 captures(none) %6) #0 {
  %8 = alloca [15 x i8], align 1
  %9 = alloca [15 x i8], align 1
  %10 = alloca [15 x i8], align 1
  tail call void @jv_free(i64 %1, ptr %2) #14
  %11 = tail call i32 @jv_get_kind(i64 %3, ptr %4) #14
  %.not = icmp eq i32 %11, 4
  %12 = load i64, ptr %5, align 8
  %13 = getelementptr inbounds nuw i8, ptr %5, i64 8
  %14 = load ptr, ptr %13, align 8
  br i1 %.not, label %26, label %15

15:                                               ; preds = %7
  tail call void @jv_free(i64 %12, ptr %14) #14
  %16 = load i64, ptr %6, align 8
  %17 = getelementptr inbounds nuw i8, ptr %6, i64 8
  %18 = load ptr, ptr %17, align 8
  tail call void @jv_free(i64 %16, ptr %18) #14
  call void @llvm.lifetime.start.p0(i64 15, ptr nonnull %10) #14
  %19 = tail call i32 @jv_get_kind(i64 %3, ptr %4) #14
  %20 = tail call ptr @jv_kind_name(i32 noundef %19) #14
  %21 = call ptr @jv_dump_string_trunc(i64 %3, ptr %4, ptr noundef nonnull %10, i64 noundef 15) #14
  %22 = call { i64, ptr } (ptr, ...) @jv_string_fmt(ptr noundef nonnull @.str.155, ptr noundef %20, ptr noundef %21, ptr noundef nonnull @.str.154) #14
  %23 = extractvalue { i64, ptr } %22, 0
  %24 = extractvalue { i64, ptr } %22, 1
  %25 = call { i64, ptr } @jv_invalid_with_msg(i64 %23, ptr %24) #14
  call void @llvm.lifetime.end.p0(i64 15, ptr nonnull %10) #14
  br label %58

26:                                               ; preds = %7
  %27 = tail call i32 @jv_get_kind(i64 %12, ptr %14) #14
  %.not13 = icmp eq i32 %27, 4
  br i1 %.not13, label %39, label %28

28:                                               ; preds = %26
  tail call void @jv_free(i64 %3, ptr %4) #14
  %29 = load i64, ptr %6, align 8
  %30 = getelementptr inbounds nuw i8, ptr %6, i64 8
  %31 = load ptr, ptr %30, align 8
  tail call void @jv_free(i64 %29, ptr %31) #14
  call void @llvm.lifetime.start.p0(i64 15, ptr nonnull %9) #14
  %32 = tail call i32 @jv_get_kind(i64 %12, ptr %14) #14
  %33 = tail call ptr @jv_kind_name(i32 noundef %32) #14
  %34 = call ptr @jv_dump_string_trunc(i64 %12, ptr %14, ptr noundef nonnull %9, i64 noundef 15) #14
  %35 = call { i64, ptr } (ptr, ...) @jv_string_fmt(ptr noundef nonnull @.str.155, ptr noundef %33, ptr noundef %34, ptr noundef nonnull @.str.154) #14
  %36 = extractvalue { i64, ptr } %35, 0
  %37 = extractvalue { i64, ptr } %35, 1
  %38 = call { i64, ptr } @jv_invalid_with_msg(i64 %36, ptr %37) #14
  call void @llvm.lifetime.end.p0(i64 15, ptr nonnull %9) #14
  br label %58

39:                                               ; preds = %26
  %40 = load i64, ptr %6, align 8
  %41 = getelementptr inbounds nuw i8, ptr %6, i64 8
  %42 = load ptr, ptr %41, align 8
  %43 = tail call i32 @jv_get_kind(i64 %40, ptr %42) #14
  %.not14 = icmp eq i32 %43, 4
  br i1 %.not14, label %52, label %44

44:                                               ; preds = %39
  tail call void @jv_free(i64 %3, ptr %4) #14
  tail call void @jv_free(i64 %12, ptr %14) #14
  call void @llvm.lifetime.start.p0(i64 15, ptr nonnull %8) #14
  %45 = tail call i32 @jv_get_kind(i64 %40, ptr %42) #14
  %46 = tail call ptr @jv_kind_name(i32 noundef %45) #14
  %47 = call ptr @jv_dump_string_trunc(i64 %40, ptr %42, ptr noundef nonnull %8, i64 noundef 15) #14
  %48 = call { i64, ptr } (ptr, ...) @jv_string_fmt(ptr noundef nonnull @.str.155, ptr noundef %46, ptr noundef %47, ptr noundef nonnull @.str.154) #14
  %49 = extractvalue { i64, ptr } %48, 0
  %50 = extractvalue { i64, ptr } %48, 1
  %51 = call { i64, ptr } @jv_invalid_with_msg(i64 %49, ptr %50) #14
  call void @llvm.lifetime.end.p0(i64 15, ptr nonnull %8) #14
  br label %58

52:                                               ; preds = %39
  %53 = tail call double @jv_number_value(i64 %3, ptr %4) #14
  %54 = tail call double @jv_number_value(i64 %12, ptr %14) #14
  %55 = tail call double @jv_number_value(i64 %40, ptr %42) #14
  %56 = tail call double @llvm.fma.f64(double %53, double %54, double %55)
  %57 = tail call { i64, ptr } @jv_number(double noundef %56) #14
  tail call void @jv_free(i64 %3, ptr %4) #14
  tail call void @jv_free(i64 %12, ptr %14) #14
  tail call void @jv_free(i64 %40, ptr %42) #14
  br label %58

58:                                               ; preds = %52, %44, %28, %15
  %.pn = phi { i64, ptr } [ %25, %15 ], [ %38, %28 ], [ %51, %44 ], [ %57, %52 ]
  ret { i64, ptr } %.pn
}